; Function Attrs: noreturn nounwind uwtable
define void @event_sock_err(i32 noundef %0, i32 noundef %1, ptr noundef %2, ...) local_unnamed_addr #1 {
  %4 = alloca [1 x %struct.__va_list_tag], align 16
  call void @llvm.lifetime.start.p0(i64 24, ptr nonnull %4) #12
  %5 = tail call ptr @__errno_location() #13
  %6 = load i32, ptr %5, align 4
  call void @llvm.va_start.p0(ptr nonnull %4)
  %7 = call ptr @strerror(i32 noundef %6) #12
  call void @event_logv_(i32 noundef 3, ptr noundef %7, ptr noundef %2, ptr noundef nonnull %4)
  call void @llvm.va_end.p0(ptr nonnull %4)
  call fastcc void @event_exit(i32 noundef %0) #14
  unreachable
}